(lp0
S'poi'
p1
aS'expenses'
p2
aS'other'
p3
aS'bonus'
p4
aS'total_stock_value'
p5
aS'restricted_stock'
p6
aS'salary'
p7
aS'total_payments'
p8
aS'exercised_stock_options'
p9
aS'from_this_person_to_poi_ratio'
p10
aS'from_poi_to_this_person_ratio'
p11
aS'shared_receipt_with_poi_ratio'
p12
aS'ena'
p13
aS'ect'
p14
aS'guy'
p15
a.